target datalayout = "e-m:e-p270:32:32-p271:32:32-p272:64:64-i64:64-i128:128-f80:128-n8:16:32:64-S128"
target triple = "x86_64-pc-linux-gnu"

%struct.MemoryRegion = type { %struct.Object, i8, i8, i8, i8, i8, i8, i8, i8, i8, i8, ptr, ptr, ptr, ptr, ptr, ptr, i32, i128, i64, ptr, i64, i8, i8, i8, i8, ptr, i64, i32, %union.anon, %union.anon.0, %union.anon.1, ptr, i32, ptr, ptr, i8 }
%struct.Object = type { ptr, ptr, ptr, i32, ptr }
%union.anon = type { %struct.QTailQLink }
%struct.QTailQLink = type { ptr, ptr }
%union.anon.0 = type { %struct.QTailQLink }
%union.anon.1 = type { %struct.QTailQLink }
%struct.VFIOPCIDevice = type { %struct.PCIDevice, %struct.VFIODevice, %struct.VFIOINTx, i32, ptr, i64, i32, i64, ptr, i32, ptr, ptr, i32, i32, [6 x %struct.VFIOBAR], ptr, ptr, %struct.PCIHostDeviceAddress, %struct.QemuUUID, %struct.EventNotifier, %struct.EventNotifier, ptr, i32, i32, i32, i32, i32, i32, i32, i32, i32, i32, i32, i8, i8, i8, i8, i8, i8, i8, i8, i8, i8, i8, i8, i8, i8, i32, i8, i8, i8, ptr, %struct.Notifier }
%struct.PCIDevice = type { %struct.DeviceState, i8, i8, ptr, ptr, ptr, ptr, ptr, i32, %struct.PCIReqIDCache, [64 x i8], [7 x %struct.PCIIORegion], %struct.AddressSpace, %struct.MemoryRegion, %struct.MemoryRegion, ptr, ptr, [3 x ptr], i8, i8, i32, i8, i32, ptr, ptr, ptr, ptr, ptr, ptr, %struct.MemoryRegion, %struct.MemoryRegion, %struct.MemoryRegion, ptr, i8, i32, i8, %struct.PCIExpressDevice, ptr, ptr, i32, i8, %struct.MemoryRegion, i32, ptr, ptr, ptr, ptr, i16, %struct.DOECap, ptr, i32, i32 }
%struct.DeviceState = type { %struct.Object, ptr, ptr, i8, i8, i64, i32, i8, ptr, %struct.NamedGPIOListHead, %struct.NamedClockListHead, %struct.BusStateHead, i32, i32, i32, %struct.ResettableState, ptr, %struct.MemReentrancyGuard }
%struct.NamedGPIOListHead = type { ptr }
%struct.NamedClockListHead = type { ptr }
%struct.BusStateHead = type { ptr }
%struct.ResettableState = type { i32, i8, i8 }
%struct.MemReentrancyGuard = type { i8 }
%struct.PCIReqIDCache = type { ptr, i32 }
%struct.PCIIORegion = type { i64, i64, i8, ptr, ptr }
%struct.AddressSpace = type { %struct.rcu_head, ptr, ptr, ptr, i32, i32, ptr, %union.anon.4, %union.anon.5, i64, i64, %struct.QemuMutex, %struct.anon.6 }
%struct.rcu_head = type { ptr, ptr }
%union.anon.4 = type { %struct.QTailQLink }
%union.anon.5 = type { %struct.QTailQLink }
%struct.QemuMutex = type { %union.pthread_mutex_t, i8 }
%union.pthread_mutex_t = type { %struct.__pthread_mutex_s }
%struct.__pthread_mutex_s = type { i32, i32, i32, i32, i32, i16, i16, %struct.__pthread_internal_list }
%struct.__pthread_internal_list = type { ptr, ptr }
%struct.anon.6 = type { ptr }
%struct.PCIExpressDevice = type { i8, i8, i8, i16, %struct.PCIEAERLog, i16, i16, i16, %struct.PCIESriovPF, %struct.PCIESriovVF }
%struct.PCIEAERLog = type { i16, i16, ptr }
%struct.PCIESriovPF = type { i16, [7 x i8], ptr, ptr }
%struct.PCIESriovVF = type { ptr, i16 }
%struct.DOECap = type { ptr, i16, %struct.anon.7, %struct.anon.8, %struct.anon.9, ptr, ptr, i32, i32, i32, ptr, i16, i32 }
%struct.anon.7 = type { i8, i16 }
%struct.anon.8 = type { i8, i8, i8 }
%struct.anon.9 = type { i8, i8, i8, i8 }
%struct.VFIODevice = type { %struct.anon.10, %struct.anon.11, %struct.anon.12, ptr, ptr, ptr, ptr, ptr, i32, i32, i8, i8, i8, i8, i8, i32, i8, ptr, i32, i32, i32, ptr, ptr, i32, i32, i8, i8, i8, ptr, i32, ptr, ptr, %struct.anon.13 }
%struct.anon.10 = type { ptr, ptr }
%struct.anon.11 = type { ptr, ptr }
%struct.anon.12 = type { ptr, ptr }
%struct.anon.13 = type { ptr, ptr }
%struct.VFIOINTx = type { i8, i8, i8, %struct.EventNotifier, %struct.EventNotifier, %struct.PCIINTxRoute, i32, ptr }
%struct.PCIINTxRoute = type { i32, i32 }
%struct.VFIOBAR = type { %struct.VFIORegion, ptr, i64, i8, i8, i8, %struct.anon.14 }
%struct.VFIORegion = type { ptr, i64, ptr, i64, i32, i32, ptr, i8 }
%struct.anon.14 = type { ptr }
%struct.PCIHostDeviceAddress = type { i32, i32, i32, i32 }
%struct.QemuUUID = type { %union.anon.15 }
%union.anon.15 = type { %struct.anon.16 }
%struct.anon.16 = type { i32, i16, i16, i8, i8, [6 x i8] }
%struct.EventNotifier = type { i32, i32, i8 }
%struct.Notifier = type { ptr, %struct.anon.17 }
%struct.anon.17 = type { ptr, ptr }
%struct.vfio_pci_hot_reset_info = type { i32, i32, i32, [0 x %struct.vfio_pci_dependent_device] }
%struct.vfio_pci_dependent_device = type { %union.anon.18, i16, i8, i8 }
%union.anon.18 = type { i32 }

@.str.10 = private unnamed_addr constant [19 x i8] c"info_p && !*info_p\00", align 1
@.str.11 = private unnamed_addr constant [22 x i8] c"../qemu/hw/vfio/pci.c\00", align 1
@__PRETTY_FUNCTION__.vfio_pci_get_pci_hot_reset_info = private unnamed_addr constant [88 x i8] c"int vfio_pci_get_pci_hot_reset_info(VFIOPCIDevice *, struct vfio_pci_hot_reset_info **)\00", align 1
@.str.12 = private unnamed_addr constant [60 x i8] c"vfio: Cannot reset device %s, no available reset mechanism.\00", align 1
@.str.13 = private unnamed_addr constant [32 x i8] c"vfio: hot reset info failed: %m\00", align 1

; Function Attrs: nounwind sspstrong uwtable
define dso_local i32 @vfio_pci_get_pci_hot_reset_info(ptr noundef %0, ptr noundef %1) #0 {
  %3 = alloca i32, align 4
  %4 = alloca ptr, align 8
  %5 = alloca ptr, align 8
  %6 = alloca ptr, align 8
  %7 = alloca i32, align 4
  %8 = alloca i32, align 4
  %9 = alloca i32, align 4
  store ptr %0, ptr %4, align 8
  store ptr %1, ptr %5, align 8
  call void @llvm.lifetime.start.p0(i64 8, ptr %6) #19
  store ptr null, ptr %6, align 8, !annotation !4
  call void @llvm.lifetime.start.p0(i64 4, ptr %7) #19
  store i32 0, ptr %7, align 4, !annotation !4
  call void @llvm.lifetime.start.p0(i64 4, ptr %8) #19
  store i32 0, ptr %8, align 4, !annotation !4
  %10 = load ptr, ptr %5, align 8
  %11 = icmp ne ptr %10, null
  br i1 %11, label %12, label %17

12:                                               ; preds = %2
  %13 = load ptr, ptr %5, align 8
  %14 = load ptr, ptr %13, align 8
  %15 = icmp ne ptr %14, null
  br i1 %15, label %17, label %16

16:                                               ; preds = %12
  br label %18

17:                                               ; preds = %12, %2
  call void @__assert_fail(ptr noundef @.str.10, ptr noundef @.str.11, i32 noundef 2478, ptr noundef @__PRETTY_FUNCTION__.vfio_pci_get_pci_hot_reset_info) #25
  unreachable

18:                                               ; preds = %16
  %19 = call noalias ptr @g_malloc0(i64 noundef 12) #22
  store ptr %19, ptr %6, align 8
  %20 = load ptr, ptr %6, align 8
  %21 = getelementptr inbounds nuw %struct.vfio_pci_hot_reset_info, ptr %20, i32 0, i32 0
  store i32 12, ptr %21, align 4
  %22 = load ptr, ptr %4, align 8
  %23 = getelementptr inbounds nuw %struct.VFIOPCIDevice, ptr %22, i32 0, i32 1
  %24 = getelementptr inbounds nuw %struct.VFIODevice, ptr %23, i32 0, i32 8
  %25 = load i32, ptr %24, align 8
  %26 = load ptr, ptr %6, align 8
  %27 = call i32 (i32, i64, ...) @ioctl(i32 noundef %25, i64 noundef 15216, ptr noundef %26) #19
  store i32 %27, ptr %7, align 4
  %28 = load i32, ptr %7, align 4
  %29 = icmp ne i32 %28, 0
  br i1 %29, label %30, label %50

30:                                               ; preds = %18
  %31 = call ptr @__errno_location() #21
  %32 = load i32, ptr %31, align 4
  %33 = icmp ne i32 %32, 28
  br i1 %33, label %34, label %50

34:                                               ; preds = %30
  %35 = call ptr @__errno_location() #21
  %36 = load i32, ptr %35, align 4
  %37 = sub i32 0, %36
  store i32 %37, ptr %7, align 4
  %38 = load ptr, ptr %6, align 8
  call void @g_free(ptr noundef %38)
  %39 = load ptr, ptr %4, align 8
  %40 = getelementptr inbounds nuw %struct.VFIOPCIDevice, ptr %39, i32 0, i32 38
  %41 = load i8, ptr %40, align 1, !range !9, !noundef !10
  %42 = trunc i8 %41 to i1
  br i1 %42, label %48, label %43

43:                                               ; preds = %34
  %44 = load ptr, ptr %4, align 8
  %45 = getelementptr inbounds nuw %struct.VFIOPCIDevice, ptr %44, i32 0, i32 1
  %46 = getelementptr inbounds nuw %struct.VFIODevice, ptr %45, i32 0, i32 6
  %47 = load ptr, ptr %46, align 8
  call void (ptr, ...) @error_report(ptr noundef @.str.12, ptr noundef %47)
  br label %48

48:                                               ; preds = %43, %34
  %49 = load i32, ptr %7, align 4
  store i32 %49, ptr %3, align 4
  store i32 1, ptr %9, align 4
  br label %84

50:                                               ; preds = %30, %18
  %51 = load ptr, ptr %6, align 8
  %52 = getelementptr inbounds nuw %struct.vfio_pci_hot_reset_info, ptr %51, i32 0, i32 2
  %53 = load i32, ptr %52, align 4
  store i32 %53, ptr %8, align 4
  %54 = load ptr, ptr %6, align 8
  %55 = load i32, ptr %8, align 4
  %56 = sext i32 %55 to i64
  %57 = mul i64 %56, 8
  %58 = add i64 12, %57
  %59 = call ptr @g_realloc(ptr noundef %54, i64 noundef %58)
  store ptr %59, ptr %6, align 8
  %60 = load i32, ptr %8, align 4
  %61 = sext i32 %60 to i64
  %62 = mul i64 %61, 8
  %63 = add i64 12, %62
  %64 = trunc i64 %63 to i32
  %65 = load ptr, ptr %6, align 8
  %66 = getelementptr inbounds nuw %struct.vfio_pci_hot_reset_info, ptr %65, i32 0, i32 0
  store i32 %64, ptr %66, align 4
  %67 = load ptr, ptr %4, align 8
  %68 = getelementptr inbounds nuw %struct.VFIOPCIDevice, ptr %67, i32 0, i32 1
  %69 = getelementptr inbounds nuw %struct.VFIODevice, ptr %68, i32 0, i32 8
  %70 = load i32, ptr %69, align 8
  %71 = load ptr, ptr %6, align 8
  %72 = call i32 (i32, i64, ...) @ioctl(i32 noundef %70, i64 noundef 15216, ptr noundef %71) #19
  store i32 %72, ptr %7, align 4
  %73 = load i32, ptr %7, align 4
  %74 = icmp ne i32 %73, 0
  br i1 %74, label %75, label %81

75:                                               ; preds = %50
  %76 = call ptr @__errno_location() #21
  %77 = load i32, ptr %76, align 4
  %78 = sub i32 0, %77
  store i32 %78, ptr %7, align 4
  %79 = load ptr, ptr %6, align 8
  call void @g_free(ptr noundef %79)
  call void (ptr, ...) @error_report(ptr noundef @.str.13)
  %80 = load i32, ptr %7, align 4
  store i32 %80, ptr %3, align 4
  store i32 1, ptr %9, align 4
  br label %84

81:                                               ; preds = %50
  %82 = load ptr, ptr %6, align 8
  %83 = load ptr, ptr %5, align 8
  store ptr %82, ptr %83, align 8
  store i32 0, ptr %3, align 4
  store i32 1, ptr %9, align 4
  br label %84

84:                                               ; preds = %81, %75, %48
  call void @llvm.lifetime.end.p0(i64 4, ptr %8) #19
  call void @llvm.lifetime.end.p0(i64 4, ptr %7) #19
  call void @llvm.lifetime.end.p0(i64 8, ptr %6) #19
  %85 = load i32, ptr %3, align 4
  ret i32 %85
}