; Function Attrs: nounwind sspstrong uwtable
define dso_local i32 @vfio_pci_get_pci_hot_reset_info(ptr noundef readonly captures(none) %0, ptr noundef captures(address_is_null) %1) local_unnamed_addr #0 {
  %.not = icmp eq ptr %1, null
  br i1 %.not, label %5, label %3

3:                                                ; preds = %2
  %4 = load ptr, ptr %1, align 8
  %.not24 = icmp eq ptr %4, null
  br i1 %.not24, label %6, label %5

5:                                                ; preds = %3, %2
  tail call void @__assert_fail(ptr noundef nonnull @.str.10, ptr noundef nonnull @.str.11, i32 noundef 2478, ptr noundef nonnull @__PRETTY_FUNCTION__.vfio_pci_get_pci_hot_reset_info) #27
  unreachable

6:                                                ; preds = %3
  %7 = tail call noalias dereferenceable_or_null(12) ptr @g_malloc0(i64 noundef 12) #30
  store i32 12, ptr %7, align 4
  %8 = getelementptr inbounds nuw i8, ptr %0, i64 2840
  %9 = load i32, ptr %8, align 8
  %10 = tail call i32 (i32, i64, ...) @ioctl(i32 noundef %9, i64 noundef 15216, ptr noundef nonnull %7) #26
  %.not25 = icmp eq i32 %10, 0
  br i1 %.not25, label %22, label %11

11:                                               ; preds = %6
  %12 = tail call ptr @__errno_location() #28
  %13 = load i32, ptr %12, align 4
  %.not26 = icmp eq i32 %13, 28
  br i1 %.not26, label %22, label %14

14:                                               ; preds = %11
  %15 = sub i32 0, %13
  tail call void @g_free(ptr noundef nonnull %7) #26
  %16 = getelementptr inbounds nuw i8, ptr %0, i64 3753
  %17 = load i8, ptr %16, align 1, !range !6, !noundef !7
  %18 = trunc nuw i8 %17 to i1
  br i1 %18, label %37, label %19

19:                                               ; preds = %14
  %20 = getelementptr inbounds nuw i8, ptr %0, i64 2824
  %21 = load ptr, ptr %20, align 8
  tail call void (ptr, ...) @error_report(ptr noundef nonnull @.str.12, ptr noundef %21) #26
  br label %37

22:                                               ; preds = %11, %6
  %23 = getelementptr inbounds nuw i8, ptr %7, i64 8
  %24 = load i32, ptr %23, align 4
  %25 = sext i32 %24 to i64
  %26 = shl nsw i64 %25, 3
  %27 = add nsw i64 %26, 12
  %28 = tail call ptr @g_realloc(ptr noundef nonnull %7, i64 noundef %27) #26
  %29 = trunc i64 %27 to i32
  store i32 %29, ptr %28, align 4
  %30 = load i32, ptr %8, align 8
  %31 = tail call i32 (i32, i64, ...) @ioctl(i32 noundef %30, i64 noundef 15216, ptr noundef nonnull %28) #26
  %.not27 = icmp eq i32 %31, 0
  br i1 %.not27, label %36, label %32

32:                                               ; preds = %22
  %33 = tail call ptr @__errno_location() #28
  %34 = load i32, ptr %33, align 4
  %35 = sub i32 0, %34
  tail call void @g_free(ptr noundef nonnull %28) #26
  tail call void (ptr, ...) @error_report(ptr noundef nonnull @.str.13) #26
  br label %37

36:                                               ; preds = %22
  store ptr %28, ptr %1, align 8
  br label %37

37:                                               ; preds = %14, %19, %36, %32
  %.0 = phi i32 [ %35, %32 ], [ 0, %36 ], [ %15, %19 ], [ %15, %14 ]
  ret i32 %.0
}